target datalayout = "e-m:e-p270:32:32-p271:32:32-p272:64:64-i64:64-i128:128-f80:128-n8:16:32:64-S128"
target triple = "x86_64-pc-linux-gnu"

%"class.cv::Size_" = type { i32, i32 }
%"class.cv::_InputArray" = type { i32, ptr, %"class.cv::Size_" }
%"class.cv::_OutputArray" = type { %"class.cv::_InputArray" }
%"class.cv::optflow::CImageBuffer" = type <{ %"class.std::vector", %"class.cv::Mat", %"class.cv::Mat", %"class.std::vector", i32, i8, [3 x i8] }>
%"class.cv::Mat" = type { i32, i32, i32, i32, ptr, ptr, ptr, ptr, ptr, ptr, %"struct.cv::MatSize", %"struct.cv::MatStep" }
%"struct.cv::MatSize" = type { ptr }
%"struct.cv::MatStep" = type { ptr, [2 x i64] }
%"class.std::vector" = type { %"struct.std::_Vector_base" }
%"struct.std::_Vector_base" = type { %"struct.std::_Vector_base<cv::Mat, std::allocator<cv::Mat>>::_Vector_impl" }
%"struct.std::_Vector_base<cv::Mat, std::allocator<cv::Mat>>::_Vector_impl" = type { %"struct.std::_Vector_base<cv::Mat, std::allocator<cv::Mat>>::_Vector_impl_data" }
%"struct.std::_Vector_base<cv::Mat, std::allocator<cv::Mat>>::_Vector_impl_data" = type { ptr, ptr, ptr }

; Function Attrs: inlinehint mustprogress uwtable
define linkonce_odr hidden void @_ZN2cv11_InputArrayC2Ev(ptr noundef nonnull align 8 dereferenceable(24) %0) unnamed_addr #6 comdat align 2 {
  %2 = alloca ptr, align 8
  store ptr %0, ptr %2, align 8, !tbaa !33
  %3 = load ptr, ptr %2, align 8
  %4 = getelementptr inbounds nuw %"class.cv::_InputArray", ptr %3, i32 0, i32 2
  call void @_ZN2cv5Size_IiEC2Ev(ptr noundef nonnull align 4 dereferenceable(8) %4)
  call void @_ZN2cv11_InputArray4initEiPKv(ptr noundef nonnull align 8 dereferenceable(24) %3, i32 noundef 0, ptr noundef null)
  ret void
}

; Function Attrs: inlinehint mustprogress nounwind uwtable
define linkonce_odr hidden void @_ZN2cv11_InputArray4initEiPKv(ptr noundef nonnull align 8 dereferenceable(24) %0, i32 noundef %1, ptr noundef %2) #9 comdat align 2 {
  %4 = alloca ptr, align 8
  %5 = alloca i32, align 4
  %6 = alloca ptr, align 8
  store ptr %0, ptr %4, align 8, !tbaa !33
  store i32 %1, ptr %5, align 4, !tbaa !8
  store ptr %2, ptr %6, align 8, !tbaa !150
  %7 = load ptr, ptr %4, align 8
  %8 = load i32, ptr %5, align 4, !tbaa !8
  %9 = getelementptr inbounds nuw %"class.cv::_InputArray", ptr %7, i32 0, i32 0
  store i32 %8, ptr %9, align 8, !tbaa !151
  %10 = load ptr, ptr %6, align 8, !tbaa !150
  %11 = getelementptr inbounds nuw %"class.cv::_InputArray", ptr %7, i32 0, i32 1
  store ptr %10, ptr %11, align 8, !tbaa !100
  ret void
}

; Function Attrs: inlinehint mustprogress nounwind uwtable
define linkonce_odr hidden void @_ZN2cv5Size_IiEC2Ev(ptr noundef nonnull align 4 dereferenceable(8) %0) unnamed_addr #9 comdat align 2 {
  %2 = alloca ptr, align 8
  store ptr %0, ptr %2, align 8, !tbaa !109
  %3 = load ptr, ptr %2, align 8
  %4 = getelementptr inbounds nuw %"class.cv::Size_", ptr %3, i32 0, i32 0
  store i32 0, ptr %4, align 4, !tbaa !37
  %5 = getelementptr inbounds nuw %"class.cv::Size_", ptr %3, i32 0, i32 1
  store i32 0, ptr %5, align 4, !tbaa !39
  ret void
}

; Function Attrs: inlinehint mustprogress nounwind uwtable
define linkonce_odr hidden void @_ZN2cv11_InputArrayD2Ev(ptr noundef nonnull align 8 dereferenceable(24) %0) unnamed_addr #9 comdat align 2 {
  %2 = alloca ptr, align 8
  store ptr %0, ptr %2, align 8, !tbaa !33
  ret void
}

; Function Attrs: inlinehint mustprogress uwtable
define linkonce_odr hidden void @_ZN2cv12_OutputArrayC2ERSt6vectorINS_3MatESaIS2_EE(ptr noundef nonnull align 8 dereferenceable(24) %0, ptr noundef nonnull align 8 dereferenceable(24) %1) unnamed_addr #6 comdat align 2 {
  %3 = alloca ptr, align 8
  %4 = alloca ptr, align 8
  store ptr %0, ptr %3, align 8, !tbaa !35
  store ptr %1, ptr %4, align 8, !tbaa !50
  %5 = load ptr, ptr %3, align 8
  call void @_ZN2cv11_InputArrayC2Ev(ptr noundef nonnull align 8 dereferenceable(24) %5)
  %6 = load ptr, ptr %4, align 8, !tbaa !50
  call void @_ZN2cv11_InputArray4initEiPKv(ptr noundef nonnull align 8 dereferenceable(24) %5, i32 noundef 33882112, ptr noundef %6)
  ret void
}

; Function Attrs: inlinehint mustprogress uwtable
define linkonce_odr hidden void @_ZN2cv11_InputArrayC2ERKNS_3MatE(ptr noundef nonnull align 8 dereferenceable(24) %0, ptr noundef nonnull align 8 dereferenceable(96) %1) unnamed_addr #6 comdat align 2 {
  %3 = alloca ptr, align 8
  %4 = alloca ptr, align 8
  store ptr %0, ptr %3, align 8, !tbaa !33
  store ptr %1, ptr %4, align 8, !tbaa !45
  %5 = load ptr, ptr %3, align 8
  %6 = getelementptr inbounds nuw %"class.cv::_InputArray", ptr %5, i32 0, i32 2
  call void @_ZN2cv5Size_IiEC2Ev(ptr noundef nonnull align 4 dereferenceable(8) %6)
  %7 = load ptr, ptr %4, align 8, !tbaa !45
  call void @_ZN2cv11_InputArray4initEiPKv(ptr noundef nonnull align 8 dereferenceable(24) %5, i32 noundef 16842752, ptr noundef %7)
  ret void
}

; Function Attrs: mustprogress uwtable
define hidden noundef i32 @_ZN2cv7optflow12CImageBuffer12buildPyramidENS_5Size_IiEEiPfb(ptr noundef nonnull align 8 dereferenceable(245) %0, i64 %1, i32 noundef %2, ptr noundef %3, i1 noundef zeroext %4) #4 align 2 personality ptr @__gxx_personality_v0 {
  %6 = alloca i32, align 4
  %7 = alloca %"class.cv::Size_", align 4
  %8 = alloca ptr, align 8
  %9 = alloca i32, align 4
  %10 = alloca ptr, align 8
  %11 = alloca i8, align 1
  %12 = alloca %"class.cv::_InputArray", align 8
  %13 = alloca %"class.cv::_OutputArray", align 8
  %14 = alloca ptr, align 8
  %15 = alloca i32, align 4
  %16 = alloca %"class.cv::Size_", align 4
  %17 = alloca %"class.cv::_InputArray", align 8
  %18 = alloca %"class.cv::_OutputArray", align 8
  %19 = alloca %"class.cv::Size_", align 4
  store i64 %1, ptr %7, align 4
  store ptr %0, ptr %8, align 8, !tbaa !3
  store i32 %2, ptr %9, align 4, !tbaa !8
  store ptr %3, ptr %10, align 8, !tbaa !10
  %20 = zext i1 %4 to i8
  store i8 %20, ptr %11, align 1, !tbaa !12
  %21 = load ptr, ptr %8, align 8
  %22 = getelementptr inbounds nuw %"class.cv::optflow::CImageBuffer", ptr %21, i32 0, i32 5
  %23 = load i8, ptr %22, align 4, !tbaa !14, !range !29, !noundef !30
  %24 = trunc i8 %23 to i1
  br i1 %24, label %28, label %25

25:                                               ; preds = %5
  %26 = getelementptr inbounds nuw %"class.cv::optflow::CImageBuffer", ptr %21, i32 0, i32 4
  %27 = load i32, ptr %26, align 8, !tbaa !31
  store i32 %27, ptr %6, align 4
  br label %72

28:                                               ; preds = %5
  %29 = load i8, ptr %11, align 1, !tbaa !12, !range !29, !noundef !30
  %30 = trunc i8 %29 to i1
  br i1 %30, label %31, label %50

31:                                               ; preds = %28
  call void @llvm.lifetime.start.p0(i64 24, ptr %12) #3
  %32 = getelementptr inbounds nuw %"class.cv::optflow::CImageBuffer", ptr %21, i32 0, i32 1
  call void @_ZN2cv11_InputArrayC2ERKNS_3MatE(ptr noundef nonnull align 8 dereferenceable(24) %12, ptr noundef nonnull align 8 dereferenceable(96) %32)
  call void @llvm.lifetime.start.p0(i64 24, ptr %13) #3
  %33 = getelementptr inbounds nuw %"class.cv::optflow::CImageBuffer", ptr %21, i32 0, i32 0
  invoke void @_ZN2cv12_OutputArrayC2ERSt6vectorINS_3MatESaIS2_EE(ptr noundef nonnull align 8 dereferenceable(24) %13, ptr noundef nonnull align 8 dereferenceable(24) %33)
          to label %34 unwind label %41

34:                                               ; preds = %31
  call void @llvm.memcpy.p0.p0.i64(ptr align 4 %16, ptr align 4 %7, i64 8, i1 false), !tbaa.struct !32
  %35 = load i32, ptr %9, align 4, !tbaa !8
  %36 = load ptr, ptr %10, align 8, !tbaa !10
  %37 = load i64, ptr %16, align 4
  %38 = invoke noundef i32 @_ZN2cv7optflowL28buildOpticalFlowPyramidScaleERKNS_11_InputArrayERKNS_12_OutputArrayENS_5Size_IiEEibiibPf(ptr noundef nonnull align 8 dereferenceable(24) %12, ptr noundef nonnull align 8 dereferenceable(24) %13, i64 %37, i32 noundef %35, i1 noundef zeroext false, i32 noundef 4, i32 noundef 0, i1 noundef zeroext true, ptr noundef %36)
          to label %39 unwind label %45

39:                                               ; preds = %34
  %40 = getelementptr inbounds nuw %"class.cv::optflow::CImageBuffer", ptr %21, i32 0, i32 4
  store i32 %38, ptr %40, align 8, !tbaa !31
  call void @_ZN2cv11_InputArrayD2Ev(ptr noundef nonnull align 8 dereferenceable(24) %13) #3
  call void @llvm.lifetime.end.p0(i64 24, ptr %13) #3
  call void @_ZN2cv11_InputArrayD2Ev(ptr noundef nonnull align 8 dereferenceable(24) %12) #3
  call void @llvm.lifetime.end.p0(i64 24, ptr %12) #3
  br label %69

41:                                               ; preds = %31
  %42 = landingpad { ptr, i32 }
          cleanup
  %43 = extractvalue { ptr, i32 } %42, 0
  store ptr %43, ptr %14, align 8
  %44 = extractvalue { ptr, i32 } %42, 1
  store i32 %44, ptr %15, align 4
  br label %49

45:                                               ; preds = %34
  %46 = landingpad { ptr, i32 }
          cleanup
  %47 = extractvalue { ptr, i32 } %46, 0
  store ptr %47, ptr %14, align 8
  %48 = extractvalue { ptr, i32 } %46, 1
  store i32 %48, ptr %15, align 4
  call void @_ZN2cv11_InputArrayD2Ev(ptr noundef nonnull align 8 dereferenceable(24) %13) #3
  br label %49

49:                                               ; preds = %45, %41
  call void @llvm.lifetime.end.p0(i64 24, ptr %13) #3
  call void @_ZN2cv11_InputArrayD2Ev(ptr noundef nonnull align 8 dereferenceable(24) %12) #3
  call void @llvm.lifetime.end.p0(i64 24, ptr %12) #3
  br label %74

50:                                               ; preds = %28
  call void @llvm.lifetime.start.p0(i64 24, ptr %17) #3
  %51 = getelementptr inbounds nuw %"class.cv::optflow::CImageBuffer", ptr %21, i32 0, i32 2
  call void @_ZN2cv11_InputArrayC2ERKNS_3MatE(ptr noundef nonnull align 8 dereferenceable(24) %17, ptr noundef nonnull align 8 dereferenceable(96) %51)
  call void @llvm.lifetime.start.p0(i64 24, ptr %18) #3
  %52 = getelementptr inbounds nuw %"class.cv::optflow::CImageBuffer", ptr %21, i32 0, i32 0
  invoke void @_ZN2cv12_OutputArrayC2ERSt6vectorINS_3MatESaIS2_EE(ptr noundef nonnull align 8 dereferenceable(24) %18, ptr noundef nonnull align 8 dereferenceable(24) %52)
          to label %53 unwind label %60

53:                                               ; preds = %50
  call void @llvm.memcpy.p0.p0.i64(ptr align 4 %19, ptr align 4 %7, i64 8, i1 false), !tbaa.struct !32
  %54 = load i32, ptr %9, align 4, !tbaa !8
  %55 = load ptr, ptr %10, align 8, !tbaa !10
  %56 = load i64, ptr %19, align 4
  %57 = invoke noundef i32 @_ZN2cv7optflowL28buildOpticalFlowPyramidScaleERKNS_11_InputArrayERKNS_12_OutputArrayENS_5Size_IiEEibiibPf(ptr noundef nonnull align 8 dereferenceable(24) %17, ptr noundef nonnull align 8 dereferenceable(24) %18, i64 %56, i32 noundef %54, i1 noundef zeroext false, i32 noundef 4, i32 noundef 0, i1 noundef zeroext true, ptr noundef %55)
          to label %58 unwind label %64

58:                                               ; preds = %53
  %59 = getelementptr inbounds nuw %"class.cv::optflow::CImageBuffer", ptr %21, i32 0, i32 4
  store i32 %57, ptr %59, align 8, !tbaa !31
  call void @_ZN2cv11_InputArrayD2Ev(ptr noundef nonnull align 8 dereferenceable(24) %18) #3
  call void @llvm.lifetime.end.p0(i64 24, ptr %18) #3
  call void @_ZN2cv11_InputArrayD2Ev(ptr noundef nonnull align 8 dereferenceable(24) %17) #3
  call void @llvm.lifetime.end.p0(i64 24, ptr %17) #3
  br label %69

60:                                               ; preds = %50
  %61 = landingpad { ptr, i32 }
          cleanup
  %62 = extractvalue { ptr, i32 } %61, 0
  store ptr %62, ptr %14, align 8
  %63 = extractvalue { ptr, i32 } %61, 1
  store i32 %63, ptr %15, align 4
  br label %68

64:                                               ; preds = %53
  %65 = landingpad { ptr, i32 }
          cleanup
  %66 = extractvalue { ptr, i32 } %65, 0
  store ptr %66, ptr %14, align 8
  %67 = extractvalue { ptr, i32 } %65, 1
  store i32 %67, ptr %15, align 4
  call void @_ZN2cv11_InputArrayD2Ev(ptr noundef nonnull align 8 dereferenceable(24) %18) #3
  br label %68

68:                                               ; preds = %64, %60
  call void @llvm.lifetime.end.p0(i64 24, ptr %18) #3
  call void @_ZN2cv11_InputArrayD2Ev(ptr noundef nonnull align 8 dereferenceable(24) %17) #3
  call void @llvm.lifetime.end.p0(i64 24, ptr %17) #3
  br label %74

69:                                               ; preds = %58, %39
  %70 = getelementptr inbounds nuw %"class.cv::optflow::CImageBuffer", ptr %21, i32 0, i32 4
  %71 = load i32, ptr %70, align 8, !tbaa !31
  store i32 %71, ptr %6, align 4
  br label %72

72:                                               ; preds = %69, %25
  %73 = load i32, ptr %6, align 4
  ret i32 %73

74:                                               ; preds = %68, %49
  %75 = load ptr, ptr %14, align 8
  %76 = load i32, ptr %15, align 4
  %77 = insertvalue { ptr, i32 } poison, ptr %75, 0
  %78 = insertvalue { ptr, i32 } %77, i32 %76, 1
  resume { ptr, i32 } %78
}