; Function Attrs: mustprogress uwtable
define hidden noundef i32 @_ZN2cv7optflow12CImageBuffer12buildPyramidENS_5Size_IiEEiPfb(ptr noundef nonnull align 8 dereferenceable(245) %0, i64 %1, i32 noundef %2, ptr noundef readonly captures(none) %3, i1 noundef zeroext %4) local_unnamed_addr #3 align 2 personality ptr @__gxx_personality_v0 {
  %6 = alloca %"class.cv::_InputArray", align 8
  %7 = alloca %"class.cv::_OutputArray", align 8
  %8 = alloca %"class.cv::_InputArray", align 8
  %9 = alloca %"class.cv::_OutputArray", align 8
  %10 = getelementptr inbounds nuw i8, ptr %0, i64 244
  %11 = load i8, ptr %10, align 4, !tbaa !3, !range !23, !noundef !24
  %12 = trunc nuw i8 %11 to i1
  %13 = getelementptr inbounds nuw i8, ptr %0, i64 240
  br i1 %12, label %14, label %._crit_edge

._crit_edge:                                      ; preds = %5
  %.0.pre = load i32, ptr %13, align 8, !tbaa !25
  br label %31

14:                                               ; preds = %5
  br i1 %4, label %15, label %23

15:                                               ; preds = %14
  call void @llvm.lifetime.start.p0(i64 24, ptr nonnull %6) #22
  %16 = getelementptr inbounds nuw i8, ptr %0, i64 24
  %17 = getelementptr inbounds nuw i8, ptr %6, i64 16
  store i32 0, ptr %17, align 8, !tbaa !26
  %18 = getelementptr inbounds nuw i8, ptr %6, i64 20
  store i32 0, ptr %18, align 4, !tbaa !28
  store i32 16842752, ptr %6, align 8, !tbaa !29
  %19 = getelementptr inbounds nuw i8, ptr %6, i64 8
  store ptr %16, ptr %19, align 8, !tbaa !31
  call void @llvm.lifetime.start.p0(i64 24, ptr nonnull %7) #22
  %20 = getelementptr inbounds nuw i8, ptr %7, i64 8
  %21 = getelementptr inbounds nuw i8, ptr %7, i64 16
  store i64 0, ptr %21, align 8
  store i32 33882112, ptr %7, align 8, !tbaa !29
  store ptr %0, ptr %20, align 8, !tbaa !31
  %22 = call fastcc noundef i32 @_ZN2cv7optflowL28buildOpticalFlowPyramidScaleERKNS_11_InputArrayERKNS_12_OutputArrayENS_5Size_IiEEibiibPf(ptr noundef nonnull align 8 dereferenceable(24) %6, ptr noundef nonnull align 8 dereferenceable(24) %7, i64 %1, i32 noundef %2, ptr noundef %3)
  store i32 %22, ptr %13, align 8, !tbaa !25
  call void @llvm.lifetime.end.p0(i64 24, ptr nonnull %7) #22
  call void @llvm.lifetime.end.p0(i64 24, ptr nonnull %6) #22
  br label %31

23:                                               ; preds = %14
  call void @llvm.lifetime.start.p0(i64 24, ptr nonnull %8) #22
  %24 = getelementptr inbounds nuw i8, ptr %0, i64 120
  %25 = getelementptr inbounds nuw i8, ptr %8, i64 16
  store i32 0, ptr %25, align 8, !tbaa !26
  %26 = getelementptr inbounds nuw i8, ptr %8, i64 20
  store i32 0, ptr %26, align 4, !tbaa !28
  store i32 16842752, ptr %8, align 8, !tbaa !29
  %27 = getelementptr inbounds nuw i8, ptr %8, i64 8
  store ptr %24, ptr %27, align 8, !tbaa !31
  call void @llvm.lifetime.start.p0(i64 24, ptr nonnull %9) #22
  %28 = getelementptr inbounds nuw i8, ptr %9, i64 8
  %29 = getelementptr inbounds nuw i8, ptr %9, i64 16
  store i64 0, ptr %29, align 8
  store i32 33882112, ptr %9, align 8, !tbaa !29
  store ptr %0, ptr %28, align 8, !tbaa !31
  %30 = call fastcc noundef i32 @_ZN2cv7optflowL28buildOpticalFlowPyramidScaleERKNS_11_InputArrayERKNS_12_OutputArrayENS_5Size_IiEEibiibPf(ptr noundef nonnull align 8 dereferenceable(24) %8, ptr noundef nonnull align 8 dereferenceable(24) %9, i64 %1, i32 noundef %2, ptr noundef %3)
  store i32 %30, ptr %13, align 8, !tbaa !25
  call void @llvm.lifetime.end.p0(i64 24, ptr nonnull %9) #22
  call void @llvm.lifetime.end.p0(i64 24, ptr nonnull %8) #22
  br label %31

31:                                               ; preds = %._crit_edge, %15, %23
  %.0 = phi i32 [ %.0.pre, %._crit_edge ], [ %22, %15 ], [ %30, %23 ]
  ret i32 %.0
}